; Function Attrs: nounwind uwtable
define ptr @l_Std_Time_Internal_Bounded_LE_truncate___boxed(ptr noundef %0, ptr noundef %1, ptr noundef %2) local_unnamed_addr #1 {
  %4 = ptrtoint ptr %2 to i64
  %5 = and i64 %4, 1
  %.not.i.i = icmp eq i64 %5, 0
  br i1 %.not.i.i, label %25, label %6, !prof !10

6:                                                ; preds = %3
  %7 = ptrtoint ptr %0 to i64
  %8 = and i64 %7, 1
  %.not7.i.i = icmp eq i64 %8, 0
  br i1 %.not7.i.i, label %l_Std_Time_Internal_Bounded_LE_truncate.exit.thread15, label %10, !prof !10

l_Std_Time_Internal_Bounded_LE_truncate.exit.thread15: ; preds = %6
  %9 = tail call ptr @lean_int_big_sub(ptr noundef %2, ptr noundef %0) #5
  br label %lean_dec.exit8

10:                                               ; preds = %6
  %11 = shl i64 %4, 31
  %12 = ashr i64 %11, 32
  %13 = shl i64 %7, 31
  %14 = ashr i64 %13, 32
  %15 = sub nsw i64 %12, %14
  %16 = add nsw i64 %15, 2147483648
  %17 = icmp ult i64 %16, 4294967296
  br i1 %17, label %18, label %23, !prof !9

18:                                               ; preds = %10
  %19 = shl nsw i64 %15, 1
  %20 = and i64 %19, 8589934590
  %21 = or disjoint i64 %20, 1
  %22 = inttoptr i64 %21 to ptr
  br label %lean_dec.exit8

23:                                               ; preds = %10
  %24 = tail call ptr @lean_big_int64_to_int(i64 noundef range(i64 -4611686016279904256, 4611686018427387905) %15) #5
  br label %lean_dec.exit8

25:                                               ; preds = %3
  %26 = tail call ptr @lean_int_big_sub(ptr noundef %2, ptr noundef %0) #5
  %27 = load i32, ptr %2, align 4, !tbaa !4
  %28 = icmp sgt i32 %27, 1
  br i1 %28, label %29, label %31, !prof !9

29:                                               ; preds = %25
  %30 = add nsw i32 %27, -1
  store i32 %30, ptr %2, align 4, !tbaa !4
  br label %lean_dec.exit8

31:                                               ; preds = %25
  %.not.i = icmp eq i32 %27, 0
  br i1 %.not.i, label %lean_dec.exit8, label %32

32:                                               ; preds = %31
  tail call void @lean_dec_ref_cold(ptr noundef nonnull %2) #5
  br label %lean_dec.exit8

lean_dec.exit8:                                   ; preds = %23, %18, %32, %31, %29, %l_Std_Time_Internal_Bounded_LE_truncate.exit.thread15
  %.0.i.i14 = phi ptr [ %9, %l_Std_Time_Internal_Bounded_LE_truncate.exit.thread15 ], [ %26, %29 ], [ %26, %31 ], [ %26, %32 ], [ %24, %23 ], [ %22, %18 ]
  %33 = ptrtoint ptr %1 to i64
  %34 = and i64 %33, 1
  %.not = icmp eq i64 %34, 0
  br i1 %.not, label %35, label %lean_dec.exit7

35:                                               ; preds = %lean_dec.exit8
  %36 = load i32, ptr %1, align 4, !tbaa !4
  %37 = icmp sgt i32 %36, 1
  br i1 %37, label %38, label %40, !prof !9

38:                                               ; preds = %35
  %39 = add nsw i32 %36, -1
  store i32 %39, ptr %1, align 4, !tbaa !4
  br label %lean_dec.exit7

40:                                               ; preds = %35
  %.not.i9 = icmp eq i32 %36, 0
  br i1 %.not.i9, label %lean_dec.exit7, label %41

41:                                               ; preds = %40
  tail call void @lean_dec_ref_cold(ptr noundef nonnull %1) #5
  br label %lean_dec.exit7

lean_dec.exit7:                                   ; preds = %41, %40, %38, %lean_dec.exit8
  %42 = ptrtoint ptr %0 to i64
  %43 = and i64 %42, 1
  %.not16 = icmp eq i64 %43, 0
  br i1 %.not16, label %44, label %lean_dec.exit

44:                                               ; preds = %lean_dec.exit7
  %45 = load i32, ptr %0, align 4, !tbaa !4
  %46 = icmp sgt i32 %45, 1
  br i1 %46, label %47, label %49, !prof !9

47:                                               ; preds = %44
  %48 = add nsw i32 %45, -1
  store i32 %48, ptr %0, align 4, !tbaa !4
  br label %lean_dec.exit

49:                                               ; preds = %44
  %.not.i11 = icmp eq i32 %45, 0
  br i1 %.not.i11, label %lean_dec.exit, label %50

50:                                               ; preds = %49
  tail call void @lean_dec_ref_cold(ptr noundef nonnull %0) #5
  br label %lean_dec.exit

lean_dec.exit:                                    ; preds = %50, %49, %47, %lean_dec.exit7
  ret ptr %.0.i.i14
}